
Timer_0_overflow.elf:     file format elf32-avr

Sections:
Idx Name          Size      VMA       LMA       File off  Algn
  0 .text         00000812  00000000  00000000  00000074  2**1
                  CONTENTS, ALLOC, LOAD, READONLY, CODE
  1 .bss          00000005  00800060  00800060  00000886  2**0
                  ALLOC
  2 .stab         000008c4  00000000  00000000  00000888  2**2
                  CONTENTS, READONLY, DEBUGGING
  3 .stabstr      00000474  00000000  00000000  0000114c  2**0
                  CONTENTS, READONLY, DEBUGGING

Disassembly of section .text:

00000000 <__vectors>:
   0:	0c 94 2a 00 	jmp	0x54	; 0x54 <__ctors_end>
   4:	0c 94 3c 00 	jmp	0x78	; 0x78 <__bad_interrupt>
   8:	0c 94 3c 00 	jmp	0x78	; 0x78 <__bad_interrupt>
   c:	0c 94 3c 00 	jmp	0x78	; 0x78 <__bad_interrupt>
  10:	0c 94 3c 00 	jmp	0x78	; 0x78 <__bad_interrupt>
  14:	0c 94 3c 00 	jmp	0x78	; 0x78 <__bad_interrupt>
  18:	0c 94 3c 00 	jmp	0x78	; 0x78 <__bad_interrupt>
  1c:	0c 94 3c 00 	jmp	0x78	; 0x78 <__bad_interrupt>
  20:	0c 94 3c 00 	jmp	0x78	; 0x78 <__bad_interrupt>
  24:	0c 94 3c 00 	jmp	0x78	; 0x78 <__bad_interrupt>
  28:	0c 94 3c 00 	jmp	0x78	; 0x78 <__bad_interrupt>
  2c:	0c 94 5f 03 	jmp	0x6be	; 0x6be <__vector_11>
  30:	0c 94 3c 00 	jmp	0x78	; 0x78 <__bad_interrupt>
  34:	0c 94 3c 00 	jmp	0x78	; 0x78 <__bad_interrupt>
  38:	0c 94 3c 00 	jmp	0x78	; 0x78 <__bad_interrupt>
  3c:	0c 94 3c 00 	jmp	0x78	; 0x78 <__bad_interrupt>
  40:	0c 94 3c 00 	jmp	0x78	; 0x78 <__bad_interrupt>
  44:	0c 94 3c 00 	jmp	0x78	; 0x78 <__bad_interrupt>
  48:	0c 94 3c 00 	jmp	0x78	; 0x78 <__bad_interrupt>
  4c:	0c 94 3c 00 	jmp	0x78	; 0x78 <__bad_interrupt>
  50:	0c 94 3c 00 	jmp	0x78	; 0x78 <__bad_interrupt>

00000054 <__ctors_end>:
  54:	11 24       	eor	r1, r1
  56:	1f be       	out	0x3f, r1	; 63
  58:	cf e5       	ldi	r28, 0x5F	; 95
  5a:	d8 e0       	ldi	r29, 0x08	; 8
  5c:	de bf       	out	0x3e, r29	; 62
  5e:	cd bf       	out	0x3d, r28	; 61

00000060 <__do_clear_bss>:
  60:	10 e0       	ldi	r17, 0x00	; 0
  62:	a0 e6       	ldi	r26, 0x60	; 96
  64:	b0 e0       	ldi	r27, 0x00	; 0
  66:	01 c0       	rjmp	.+2      	; 0x6a <.do_clear_bss_start>

00000068 <.do_clear_bss_loop>:
  68:	1d 92       	st	X+, r1

0000006a <.do_clear_bss_start>:
  6a:	a5 36       	cpi	r26, 0x65	; 101
  6c:	b1 07       	cpc	r27, r17
  6e:	e1 f7       	brne	.-8      	; 0x68 <.do_clear_bss_loop>
  70:	0e 94 9a 03 	call	0x734	; 0x734 <main>
  74:	0c 94 07 04 	jmp	0x80e	; 0x80e <_exit>

00000078 <__bad_interrupt>:
  78:	0c 94 00 00 	jmp	0	; 0x0 <__vectors>

0000007c <DIO_set_pin_direction>:
#include "DIO_config.h"
#include "DIO_private.h"
#include "DIO_interface.h"

U8 DIO_set_pin_direction(U8 port_NB,U8 pin_NB,U8 pin_direction)
{
  7c:	df 93       	push	r29
  7e:	cf 93       	push	r28
  80:	00 d0       	rcall	.+0      	; 0x82 <DIO_set_pin_direction+0x6>
  82:	00 d0       	rcall	.+0      	; 0x84 <DIO_set_pin_direction+0x8>
  84:	00 d0       	rcall	.+0      	; 0x86 <DIO_set_pin_direction+0xa>
  86:	cd b7       	in	r28, 0x3d	; 61
  88:	de b7       	in	r29, 0x3e	; 62
  8a:	8a 83       	std	Y+2, r24	; 0x02
  8c:	6b 83       	std	Y+3, r22	; 0x03
  8e:	4c 83       	std	Y+4, r20	; 0x04
U8 error_state = 0;
  90:	19 82       	std	Y+1, r1	; 0x01
if(port_NB>= DIO_Max_port_NB)
  92:	8a 81       	ldd	r24, Y+2	; 0x02
  94:	84 30       	cpi	r24, 0x04	; 4
  96:	18 f0       	brcs	.+6      	; 0x9e <DIO_set_pin_direction+0x22>
{
	error_state = 1;
  98:	81 e0       	ldi	r24, 0x01	; 1
  9a:	89 83       	std	Y+1, r24	; 0x01
  9c:	e0 c0       	rjmp	.+448    	; 0x25e <DIO_set_pin_direction+0x1e2>
}
else if(pin_NB>=DIO_Max_pin_NB )
  9e:	8b 81       	ldd	r24, Y+3	; 0x03
  a0:	88 30       	cpi	r24, 0x08	; 8
  a2:	18 f0       	brcs	.+6      	; 0xaa <DIO_set_pin_direction+0x2e>
{
	error_state = 1;
  a4:	81 e0       	ldi	r24, 0x01	; 1
  a6:	89 83       	std	Y+1, r24	; 0x01
  a8:	da c0       	rjmp	.+436    	; 0x25e <DIO_set_pin_direction+0x1e2>
}
else if((pin_direction !=DIO_Input) && (pin_direction!=DIO_Output))
  aa:	8c 81       	ldd	r24, Y+4	; 0x04
  ac:	88 23       	and	r24, r24
  ae:	31 f0       	breq	.+12     	; 0xbc <DIO_set_pin_direction+0x40>
  b0:	8c 81       	ldd	r24, Y+4	; 0x04
  b2:	81 30       	cpi	r24, 0x01	; 1
  b4:	19 f0       	breq	.+6      	; 0xbc <DIO_set_pin_direction+0x40>
{
	error_state = 1;
  b6:	81 e0       	ldi	r24, 0x01	; 1
  b8:	89 83       	std	Y+1, r24	; 0x01
  ba:	d1 c0       	rjmp	.+418    	; 0x25e <DIO_set_pin_direction+0x1e2>
}
else{
     switch(port_NB){
  bc:	8a 81       	ldd	r24, Y+2	; 0x02
  be:	28 2f       	mov	r18, r24
  c0:	30 e0       	ldi	r19, 0x00	; 0
  c2:	3e 83       	std	Y+6, r19	; 0x06
  c4:	2d 83       	std	Y+5, r18	; 0x05
  c6:	8d 81       	ldd	r24, Y+5	; 0x05
  c8:	9e 81       	ldd	r25, Y+6	; 0x06
  ca:	81 30       	cpi	r24, 0x01	; 1
  cc:	91 05       	cpc	r25, r1
  ce:	09 f4       	brne	.+2      	; 0xd2 <DIO_set_pin_direction+0x56>
  d0:	43 c0       	rjmp	.+134    	; 0x158 <DIO_set_pin_direction+0xdc>
  d2:	2d 81       	ldd	r18, Y+5	; 0x05
  d4:	3e 81       	ldd	r19, Y+6	; 0x06
  d6:	22 30       	cpi	r18, 0x02	; 2
  d8:	31 05       	cpc	r19, r1
  da:	2c f4       	brge	.+10     	; 0xe6 <DIO_set_pin_direction+0x6a>
  dc:	8d 81       	ldd	r24, Y+5	; 0x05
  de:	9e 81       	ldd	r25, Y+6	; 0x06
  e0:	00 97       	sbiw	r24, 0x00	; 0
  e2:	71 f0       	breq	.+28     	; 0x100 <DIO_set_pin_direction+0x84>
  e4:	bc c0       	rjmp	.+376    	; 0x25e <DIO_set_pin_direction+0x1e2>
  e6:	2d 81       	ldd	r18, Y+5	; 0x05
  e8:	3e 81       	ldd	r19, Y+6	; 0x06
  ea:	22 30       	cpi	r18, 0x02	; 2
  ec:	31 05       	cpc	r19, r1
  ee:	09 f4       	brne	.+2      	; 0xf2 <DIO_set_pin_direction+0x76>
  f0:	5f c0       	rjmp	.+190    	; 0x1b0 <DIO_set_pin_direction+0x134>
  f2:	8d 81       	ldd	r24, Y+5	; 0x05
  f4:	9e 81       	ldd	r25, Y+6	; 0x06
  f6:	83 30       	cpi	r24, 0x03	; 3
  f8:	91 05       	cpc	r25, r1
  fa:	09 f4       	brne	.+2      	; 0xfe <DIO_set_pin_direction+0x82>
  fc:	85 c0       	rjmp	.+266    	; 0x208 <DIO_set_pin_direction+0x18c>
  fe:	af c0       	rjmp	.+350    	; 0x25e <DIO_set_pin_direction+0x1e2>
      case Group_A:
	   assign_bit(DIO_U8_DDRA,pin_NB,pin_direction);
 100:	8c 81       	ldd	r24, Y+4	; 0x04
 102:	81 30       	cpi	r24, 0x01	; 1
 104:	a1 f4       	brne	.+40     	; 0x12e <DIO_set_pin_direction+0xb2>
 106:	aa e3       	ldi	r26, 0x3A	; 58
 108:	b0 e0       	ldi	r27, 0x00	; 0
 10a:	ea e3       	ldi	r30, 0x3A	; 58
 10c:	f0 e0       	ldi	r31, 0x00	; 0
 10e:	80 81       	ld	r24, Z
 110:	48 2f       	mov	r20, r24
 112:	8b 81       	ldd	r24, Y+3	; 0x03
 114:	28 2f       	mov	r18, r24
 116:	30 e0       	ldi	r19, 0x00	; 0
 118:	81 e0       	ldi	r24, 0x01	; 1
 11a:	90 e0       	ldi	r25, 0x00	; 0
 11c:	02 2e       	mov	r0, r18
 11e:	02 c0       	rjmp	.+4      	; 0x124 <DIO_set_pin_direction+0xa8>
 120:	88 0f       	add	r24, r24
 122:	99 1f       	adc	r25, r25
 124:	0a 94       	dec	r0
 126:	e2 f7       	brpl	.-8      	; 0x120 <DIO_set_pin_direction+0xa4>
 128:	84 2b       	or	r24, r20
 12a:	8c 93       	st	X, r24
 12c:	98 c0       	rjmp	.+304    	; 0x25e <DIO_set_pin_direction+0x1e2>
 12e:	aa e3       	ldi	r26, 0x3A	; 58
 130:	b0 e0       	ldi	r27, 0x00	; 0
 132:	ea e3       	ldi	r30, 0x3A	; 58
 134:	f0 e0       	ldi	r31, 0x00	; 0
 136:	80 81       	ld	r24, Z
 138:	48 2f       	mov	r20, r24
 13a:	8b 81       	ldd	r24, Y+3	; 0x03
 13c:	28 2f       	mov	r18, r24
 13e:	30 e0       	ldi	r19, 0x00	; 0
 140:	81 e0       	ldi	r24, 0x01	; 1
 142:	90 e0       	ldi	r25, 0x00	; 0
 144:	02 2e       	mov	r0, r18
 146:	02 c0       	rjmp	.+4      	; 0x14c <DIO_set_pin_direction+0xd0>
 148:	88 0f       	add	r24, r24
 14a:	99 1f       	adc	r25, r25
 14c:	0a 94       	dec	r0
 14e:	e2 f7       	brpl	.-8      	; 0x148 <DIO_set_pin_direction+0xcc>
 150:	80 95       	com	r24
 152:	84 23       	and	r24, r20
 154:	8c 93       	st	X, r24
 156:	83 c0       	rjmp	.+262    	; 0x25e <DIO_set_pin_direction+0x1e2>
	   break;
	   case Group_B:
	   assign_bit(DIO_U8_DDRB,pin_NB,pin_direction);
 158:	8c 81       	ldd	r24, Y+4	; 0x04
 15a:	81 30       	cpi	r24, 0x01	; 1
 15c:	a1 f4       	brne	.+40     	; 0x186 <DIO_set_pin_direction+0x10a>
 15e:	a7 e3       	ldi	r26, 0x37	; 55
 160:	b0 e0       	ldi	r27, 0x00	; 0
 162:	e7 e3       	ldi	r30, 0x37	; 55
 164:	f0 e0       	ldi	r31, 0x00	; 0
 166:	80 81       	ld	r24, Z
 168:	48 2f       	mov	r20, r24
 16a:	8b 81       	ldd	r24, Y+3	; 0x03
 16c:	28 2f       	mov	r18, r24
 16e:	30 e0       	ldi	r19, 0x00	; 0
 170:	81 e0       	ldi	r24, 0x01	; 1
 172:	90 e0       	ldi	r25, 0x00	; 0
 174:	02 2e       	mov	r0, r18
 176:	02 c0       	rjmp	.+4      	; 0x17c <DIO_set_pin_direction+0x100>
 178:	88 0f       	add	r24, r24
 17a:	99 1f       	adc	r25, r25
 17c:	0a 94       	dec	r0
 17e:	e2 f7       	brpl	.-8      	; 0x178 <DIO_set_pin_direction+0xfc>
 180:	84 2b       	or	r24, r20
 182:	8c 93       	st	X, r24
 184:	6c c0       	rjmp	.+216    	; 0x25e <DIO_set_pin_direction+0x1e2>
 186:	a7 e3       	ldi	r26, 0x37	; 55
 188:	b0 e0       	ldi	r27, 0x00	; 0
 18a:	e7 e3       	ldi	r30, 0x37	; 55
 18c:	f0 e0       	ldi	r31, 0x00	; 0
 18e:	80 81       	ld	r24, Z
 190:	48 2f       	mov	r20, r24
 192:	8b 81       	ldd	r24, Y+3	; 0x03
 194:	28 2f       	mov	r18, r24
 196:	30 e0       	ldi	r19, 0x00	; 0
 198:	81 e0       	ldi	r24, 0x01	; 1
 19a:	90 e0       	ldi	r25, 0x00	; 0
 19c:	02 2e       	mov	r0, r18
 19e:	02 c0       	rjmp	.+4      	; 0x1a4 <DIO_set_pin_direction+0x128>
 1a0:	88 0f       	add	r24, r24
 1a2:	99 1f       	adc	r25, r25
 1a4:	0a 94       	dec	r0
 1a6:	e2 f7       	brpl	.-8      	; 0x1a0 <DIO_set_pin_direction+0x124>
 1a8:	80 95       	com	r24
 1aa:	84 23       	and	r24, r20
 1ac:	8c 93       	st	X, r24
 1ae:	57 c0       	rjmp	.+174    	; 0x25e <DIO_set_pin_direction+0x1e2>
	   break;
     case Group_C:
	   assign_bit(DIO_U8_DDRC,pin_NB,pin_direction);
 1b0:	8c 81       	ldd	r24, Y+4	; 0x04
 1b2:	81 30       	cpi	r24, 0x01	; 1
 1b4:	a1 f4       	brne	.+40     	; 0x1de <DIO_set_pin_direction+0x162>
 1b6:	a4 e3       	ldi	r26, 0x34	; 52
 1b8:	b0 e0       	ldi	r27, 0x00	; 0
 1ba:	e4 e3       	ldi	r30, 0x34	; 52
 1bc:	f0 e0       	ldi	r31, 0x00	; 0
 1be:	80 81       	ld	r24, Z
 1c0:	48 2f       	mov	r20, r24
 1c2:	8b 81       	ldd	r24, Y+3	; 0x03
 1c4:	28 2f       	mov	r18, r24
 1c6:	30 e0       	ldi	r19, 0x00	; 0
 1c8:	81 e0       	ldi	r24, 0x01	; 1
 1ca:	90 e0       	ldi	r25, 0x00	; 0
 1cc:	02 2e       	mov	r0, r18
 1ce:	02 c0       	rjmp	.+4      	; 0x1d4 <DIO_set_pin_direction+0x158>
 1d0:	88 0f       	add	r24, r24
 1d2:	99 1f       	adc	r25, r25
 1d4:	0a 94       	dec	r0
 1d6:	e2 f7       	brpl	.-8      	; 0x1d0 <DIO_set_pin_direction+0x154>
 1d8:	84 2b       	or	r24, r20
 1da:	8c 93       	st	X, r24
 1dc:	40 c0       	rjmp	.+128    	; 0x25e <DIO_set_pin_direction+0x1e2>
 1de:	a4 e3       	ldi	r26, 0x34	; 52
 1e0:	b0 e0       	ldi	r27, 0x00	; 0
 1e2:	e4 e3       	ldi	r30, 0x34	; 52
 1e4:	f0 e0       	ldi	r31, 0x00	; 0
 1e6:	80 81       	ld	r24, Z
 1e8:	48 2f       	mov	r20, r24
 1ea:	8b 81       	ldd	r24, Y+3	; 0x03
 1ec:	28 2f       	mov	r18, r24
 1ee:	30 e0       	ldi	r19, 0x00	; 0
 1f0:	81 e0       	ldi	r24, 0x01	; 1
 1f2:	90 e0       	ldi	r25, 0x00	; 0
 1f4:	02 2e       	mov	r0, r18
 1f6:	02 c0       	rjmp	.+4      	; 0x1fc <DIO_set_pin_direction+0x180>
 1f8:	88 0f       	add	r24, r24
 1fa:	99 1f       	adc	r25, r25
 1fc:	0a 94       	dec	r0
 1fe:	e2 f7       	brpl	.-8      	; 0x1f8 <DIO_set_pin_direction+0x17c>
 200:	80 95       	com	r24
 202:	84 23       	and	r24, r20
 204:	8c 93       	st	X, r24
 206:	2b c0       	rjmp	.+86     	; 0x25e <DIO_set_pin_direction+0x1e2>
	   break;
     case Group_D:
	   assign_bit(DIO_U8_DDRD,pin_NB,pin_direction);
 208:	8c 81       	ldd	r24, Y+4	; 0x04
 20a:	81 30       	cpi	r24, 0x01	; 1
 20c:	a1 f4       	brne	.+40     	; 0x236 <DIO_set_pin_direction+0x1ba>
 20e:	a1 e3       	ldi	r26, 0x31	; 49
 210:	b0 e0       	ldi	r27, 0x00	; 0
 212:	e1 e3       	ldi	r30, 0x31	; 49
 214:	f0 e0       	ldi	r31, 0x00	; 0
 216:	80 81       	ld	r24, Z
 218:	48 2f       	mov	r20, r24
 21a:	8b 81       	ldd	r24, Y+3	; 0x03
 21c:	28 2f       	mov	r18, r24
 21e:	30 e0       	ldi	r19, 0x00	; 0
 220:	81 e0       	ldi	r24, 0x01	; 1
 222:	90 e0       	ldi	r25, 0x00	; 0
 224:	02 2e       	mov	r0, r18
 226:	02 c0       	rjmp	.+4      	; 0x22c <DIO_set_pin_direction+0x1b0>
 228:	88 0f       	add	r24, r24
 22a:	99 1f       	adc	r25, r25
 22c:	0a 94       	dec	r0
 22e:	e2 f7       	brpl	.-8      	; 0x228 <DIO_set_pin_direction+0x1ac>
 230:	84 2b       	or	r24, r20
 232:	8c 93       	st	X, r24
 234:	14 c0       	rjmp	.+40     	; 0x25e <DIO_set_pin_direction+0x1e2>
 236:	a1 e3       	ldi	r26, 0x31	; 49
 238:	b0 e0       	ldi	r27, 0x00	; 0
 23a:	e1 e3       	ldi	r30, 0x31	; 49
 23c:	f0 e0       	ldi	r31, 0x00	; 0
 23e:	80 81       	ld	r24, Z
 240:	48 2f       	mov	r20, r24
 242:	8b 81       	ldd	r24, Y+3	; 0x03
 244:	28 2f       	mov	r18, r24
 246:	30 e0       	ldi	r19, 0x00	; 0
 248:	81 e0       	ldi	r24, 0x01	; 1
 24a:	90 e0       	ldi	r25, 0x00	; 0
 24c:	02 2e       	mov	r0, r18
 24e:	02 c0       	rjmp	.+4      	; 0x254 <DIO_set_pin_direction+0x1d8>
 250:	88 0f       	add	r24, r24
 252:	99 1f       	adc	r25, r25
 254:	0a 94       	dec	r0
 256:	e2 f7       	brpl	.-8      	; 0x250 <DIO_set_pin_direction+0x1d4>
 258:	80 95       	com	r24
 25a:	84 23       	and	r24, r20
 25c:	8c 93       	st	X, r24
	   break;
}
}

return error_state;
 25e:	89 81       	ldd	r24, Y+1	; 0x01
}
 260:	26 96       	adiw	r28, 0x06	; 6
 262:	0f b6       	in	r0, 0x3f	; 63
 264:	f8 94       	cli
 266:	de bf       	out	0x3e, r29	; 62
 268:	0f be       	out	0x3f, r0	; 63
 26a:	cd bf       	out	0x3d, r28	; 61
 26c:	cf 91       	pop	r28
 26e:	df 91       	pop	r29
 270:	08 95       	ret

00000272 <DIO_set_pin_value>:


U8 DIO_set_pin_value(U8 port_NB,U8 pin_NB,U8 pin_value)
{
 272:	df 93       	push	r29
 274:	cf 93       	push	r28
 276:	00 d0       	rcall	.+0      	; 0x278 <DIO_set_pin_value+0x6>
 278:	00 d0       	rcall	.+0      	; 0x27a <DIO_set_pin_value+0x8>
 27a:	00 d0       	rcall	.+0      	; 0x27c <DIO_set_pin_value+0xa>
 27c:	cd b7       	in	r28, 0x3d	; 61
 27e:	de b7       	in	r29, 0x3e	; 62
 280:	8a 83       	std	Y+2, r24	; 0x02
 282:	6b 83       	std	Y+3, r22	; 0x03
 284:	4c 83       	std	Y+4, r20	; 0x04
U8 error_state = 0;
 286:	19 82       	std	Y+1, r1	; 0x01
if(port_NB>= DIO_Max_port_NB)
 288:	8a 81       	ldd	r24, Y+2	; 0x02
 28a:	84 30       	cpi	r24, 0x04	; 4
 28c:	18 f0       	brcs	.+6      	; 0x294 <DIO_set_pin_value+0x22>
{
	error_state = 1;
 28e:	81 e0       	ldi	r24, 0x01	; 1
 290:	89 83       	std	Y+1, r24	; 0x01
 292:	e0 c0       	rjmp	.+448    	; 0x454 <DIO_set_pin_value+0x1e2>
}
else if(pin_NB>=DIO_Max_pin_NB)
 294:	8b 81       	ldd	r24, Y+3	; 0x03
 296:	88 30       	cpi	r24, 0x08	; 8
 298:	18 f0       	brcs	.+6      	; 0x2a0 <DIO_set_pin_value+0x2e>
{
	error_state = 1;
 29a:	81 e0       	ldi	r24, 0x01	; 1
 29c:	89 83       	std	Y+1, r24	; 0x01
 29e:	da c0       	rjmp	.+436    	; 0x454 <DIO_set_pin_value+0x1e2>
}
else if((pin_value!=DIO_High) && (pin_value!=DIO_Low))
 2a0:	8c 81       	ldd	r24, Y+4	; 0x04
 2a2:	81 30       	cpi	r24, 0x01	; 1
 2a4:	31 f0       	breq	.+12     	; 0x2b2 <DIO_set_pin_value+0x40>
 2a6:	8c 81       	ldd	r24, Y+4	; 0x04
 2a8:	88 23       	and	r24, r24
 2aa:	19 f0       	breq	.+6      	; 0x2b2 <DIO_set_pin_value+0x40>
{
	error_state = 1;
 2ac:	81 e0       	ldi	r24, 0x01	; 1
 2ae:	89 83       	std	Y+1, r24	; 0x01
 2b0:	d1 c0       	rjmp	.+418    	; 0x454 <DIO_set_pin_value+0x1e2>
}
else{
     switch(port_NB){
 2b2:	8a 81       	ldd	r24, Y+2	; 0x02
 2b4:	28 2f       	mov	r18, r24
 2b6:	30 e0       	ldi	r19, 0x00	; 0
 2b8:	3e 83       	std	Y+6, r19	; 0x06
 2ba:	2d 83       	std	Y+5, r18	; 0x05
 2bc:	8d 81       	ldd	r24, Y+5	; 0x05
 2be:	9e 81       	ldd	r25, Y+6	; 0x06
 2c0:	81 30       	cpi	r24, 0x01	; 1
 2c2:	91 05       	cpc	r25, r1
 2c4:	09 f4       	brne	.+2      	; 0x2c8 <DIO_set_pin_value+0x56>
 2c6:	43 c0       	rjmp	.+134    	; 0x34e <DIO_set_pin_value+0xdc>
 2c8:	2d 81       	ldd	r18, Y+5	; 0x05
 2ca:	3e 81       	ldd	r19, Y+6	; 0x06
 2cc:	22 30       	cpi	r18, 0x02	; 2
 2ce:	31 05       	cpc	r19, r1
 2d0:	2c f4       	brge	.+10     	; 0x2dc <DIO_set_pin_value+0x6a>
 2d2:	8d 81       	ldd	r24, Y+5	; 0x05
 2d4:	9e 81       	ldd	r25, Y+6	; 0x06
 2d6:	00 97       	sbiw	r24, 0x00	; 0
 2d8:	71 f0       	breq	.+28     	; 0x2f6 <DIO_set_pin_value+0x84>
 2da:	bc c0       	rjmp	.+376    	; 0x454 <DIO_set_pin_value+0x1e2>
 2dc:	2d 81       	ldd	r18, Y+5	; 0x05
 2de:	3e 81       	ldd	r19, Y+6	; 0x06
 2e0:	22 30       	cpi	r18, 0x02	; 2
 2e2:	31 05       	cpc	r19, r1
 2e4:	09 f4       	brne	.+2      	; 0x2e8 <DIO_set_pin_value+0x76>
 2e6:	5f c0       	rjmp	.+190    	; 0x3a6 <DIO_set_pin_value+0x134>
 2e8:	8d 81       	ldd	r24, Y+5	; 0x05
 2ea:	9e 81       	ldd	r25, Y+6	; 0x06
 2ec:	83 30       	cpi	r24, 0x03	; 3
 2ee:	91 05       	cpc	r25, r1
 2f0:	09 f4       	brne	.+2      	; 0x2f4 <DIO_set_pin_value+0x82>
 2f2:	85 c0       	rjmp	.+266    	; 0x3fe <DIO_set_pin_value+0x18c>
 2f4:	af c0       	rjmp	.+350    	; 0x454 <DIO_set_pin_value+0x1e2>
      case Group_A:
	   assign_bit(DIO_U8_PORTA,pin_NB,pin_value);
 2f6:	8c 81       	ldd	r24, Y+4	; 0x04
 2f8:	81 30       	cpi	r24, 0x01	; 1
 2fa:	a1 f4       	brne	.+40     	; 0x324 <DIO_set_pin_value+0xb2>
 2fc:	ab e3       	ldi	r26, 0x3B	; 59
 2fe:	b0 e0       	ldi	r27, 0x00	; 0
 300:	eb e3       	ldi	r30, 0x3B	; 59
 302:	f0 e0       	ldi	r31, 0x00	; 0
 304:	80 81       	ld	r24, Z
 306:	48 2f       	mov	r20, r24
 308:	8b 81       	ldd	r24, Y+3	; 0x03
 30a:	28 2f       	mov	r18, r24
 30c:	30 e0       	ldi	r19, 0x00	; 0
 30e:	81 e0       	ldi	r24, 0x01	; 1
 310:	90 e0       	ldi	r25, 0x00	; 0
 312:	02 2e       	mov	r0, r18
 314:	02 c0       	rjmp	.+4      	; 0x31a <DIO_set_pin_value+0xa8>
 316:	88 0f       	add	r24, r24
 318:	99 1f       	adc	r25, r25
 31a:	0a 94       	dec	r0
 31c:	e2 f7       	brpl	.-8      	; 0x316 <DIO_set_pin_value+0xa4>
 31e:	84 2b       	or	r24, r20
 320:	8c 93       	st	X, r24
 322:	98 c0       	rjmp	.+304    	; 0x454 <DIO_set_pin_value+0x1e2>
 324:	ab e3       	ldi	r26, 0x3B	; 59
 326:	b0 e0       	ldi	r27, 0x00	; 0
 328:	eb e3       	ldi	r30, 0x3B	; 59
 32a:	f0 e0       	ldi	r31, 0x00	; 0
 32c:	80 81       	ld	r24, Z
 32e:	48 2f       	mov	r20, r24
 330:	8b 81       	ldd	r24, Y+3	; 0x03
 332:	28 2f       	mov	r18, r24
 334:	30 e0       	ldi	r19, 0x00	; 0
 336:	81 e0       	ldi	r24, 0x01	; 1
 338:	90 e0       	ldi	r25, 0x00	; 0
 33a:	02 2e       	mov	r0, r18
 33c:	02 c0       	rjmp	.+4      	; 0x342 <DIO_set_pin_value+0xd0>
 33e:	88 0f       	add	r24, r24
 340:	99 1f       	adc	r25, r25
 342:	0a 94       	dec	r0
 344:	e2 f7       	brpl	.-8      	; 0x33e <DIO_set_pin_value+0xcc>
 346:	80 95       	com	r24
 348:	84 23       	and	r24, r20
 34a:	8c 93       	st	X, r24
 34c:	83 c0       	rjmp	.+262    	; 0x454 <DIO_set_pin_value+0x1e2>
	   break;
	   case Group_B:
	   assign_bit(DIO_U8_PORTB,pin_NB,pin_value);
 34e:	8c 81       	ldd	r24, Y+4	; 0x04
 350:	81 30       	cpi	r24, 0x01	; 1
 352:	a1 f4       	brne	.+40     	; 0x37c <DIO_set_pin_value+0x10a>
 354:	a8 e3       	ldi	r26, 0x38	; 56
 356:	b0 e0       	ldi	r27, 0x00	; 0
 358:	e8 e3       	ldi	r30, 0x38	; 56
 35a:	f0 e0       	ldi	r31, 0x00	; 0
 35c:	80 81       	ld	r24, Z
 35e:	48 2f       	mov	r20, r24
 360:	8b 81       	ldd	r24, Y+3	; 0x03
 362:	28 2f       	mov	r18, r24
 364:	30 e0       	ldi	r19, 0x00	; 0
 366:	81 e0       	ldi	r24, 0x01	; 1
 368:	90 e0       	ldi	r25, 0x00	; 0
 36a:	02 2e       	mov	r0, r18
 36c:	02 c0       	rjmp	.+4      	; 0x372 <DIO_set_pin_value+0x100>
 36e:	88 0f       	add	r24, r24
 370:	99 1f       	adc	r25, r25
 372:	0a 94       	dec	r0
 374:	e2 f7       	brpl	.-8      	; 0x36e <DIO_set_pin_value+0xfc>
 376:	84 2b       	or	r24, r20
 378:	8c 93       	st	X, r24
 37a:	6c c0       	rjmp	.+216    	; 0x454 <DIO_set_pin_value+0x1e2>
 37c:	a8 e3       	ldi	r26, 0x38	; 56
 37e:	b0 e0       	ldi	r27, 0x00	; 0
 380:	e8 e3       	ldi	r30, 0x38	; 56
 382:	f0 e0       	ldi	r31, 0x00	; 0
 384:	80 81       	ld	r24, Z
 386:	48 2f       	mov	r20, r24
 388:	8b 81       	ldd	r24, Y+3	; 0x03
 38a:	28 2f       	mov	r18, r24
 38c:	30 e0       	ldi	r19, 0x00	; 0
 38e:	81 e0       	ldi	r24, 0x01	; 1
 390:	90 e0       	ldi	r25, 0x00	; 0
 392:	02 2e       	mov	r0, r18
 394:	02 c0       	rjmp	.+4      	; 0x39a <DIO_set_pin_value+0x128>
 396:	88 0f       	add	r24, r24
 398:	99 1f       	adc	r25, r25
 39a:	0a 94       	dec	r0
 39c:	e2 f7       	brpl	.-8      	; 0x396 <DIO_set_pin_value+0x124>
 39e:	80 95       	com	r24
 3a0:	84 23       	and	r24, r20
 3a2:	8c 93       	st	X, r24
 3a4:	57 c0       	rjmp	.+174    	; 0x454 <DIO_set_pin_value+0x1e2>
	   break;
     case Group_C:
	   assign_bit(DIO_U8_PORTC,pin_NB,pin_value);
 3a6:	8c 81       	ldd	r24, Y+4	; 0x04
 3a8:	81 30       	cpi	r24, 0x01	; 1
 3aa:	a1 f4       	brne	.+40     	; 0x3d4 <DIO_set_pin_value+0x162>
 3ac:	a5 e3       	ldi	r26, 0x35	; 53
 3ae:	b0 e0       	ldi	r27, 0x00	; 0
 3b0:	e5 e3       	ldi	r30, 0x35	; 53
 3b2:	f0 e0       	ldi	r31, 0x00	; 0
 3b4:	80 81       	ld	r24, Z
 3b6:	48 2f       	mov	r20, r24
 3b8:	8b 81       	ldd	r24, Y+3	; 0x03
 3ba:	28 2f       	mov	r18, r24
 3bc:	30 e0       	ldi	r19, 0x00	; 0
 3be:	81 e0       	ldi	r24, 0x01	; 1
 3c0:	90 e0       	ldi	r25, 0x00	; 0
 3c2:	02 2e       	mov	r0, r18
 3c4:	02 c0       	rjmp	.+4      	; 0x3ca <DIO_set_pin_value+0x158>
 3c6:	88 0f       	add	r24, r24
 3c8:	99 1f       	adc	r25, r25
 3ca:	0a 94       	dec	r0
 3cc:	e2 f7       	brpl	.-8      	; 0x3c6 <DIO_set_pin_value+0x154>
 3ce:	84 2b       	or	r24, r20
 3d0:	8c 93       	st	X, r24
 3d2:	40 c0       	rjmp	.+128    	; 0x454 <DIO_set_pin_value+0x1e2>
 3d4:	a5 e3       	ldi	r26, 0x35	; 53
 3d6:	b0 e0       	ldi	r27, 0x00	; 0
 3d8:	e5 e3       	ldi	r30, 0x35	; 53
 3da:	f0 e0       	ldi	r31, 0x00	; 0
 3dc:	80 81       	ld	r24, Z
 3de:	48 2f       	mov	r20, r24
 3e0:	8b 81       	ldd	r24, Y+3	; 0x03
 3e2:	28 2f       	mov	r18, r24
 3e4:	30 e0       	ldi	r19, 0x00	; 0
 3e6:	81 e0       	ldi	r24, 0x01	; 1
 3e8:	90 e0       	ldi	r25, 0x00	; 0
 3ea:	02 2e       	mov	r0, r18
 3ec:	02 c0       	rjmp	.+4      	; 0x3f2 <DIO_set_pin_value+0x180>
 3ee:	88 0f       	add	r24, r24
 3f0:	99 1f       	adc	r25, r25
 3f2:	0a 94       	dec	r0
 3f4:	e2 f7       	brpl	.-8      	; 0x3ee <DIO_set_pin_value+0x17c>
 3f6:	80 95       	com	r24
 3f8:	84 23       	and	r24, r20
 3fa:	8c 93       	st	X, r24
 3fc:	2b c0       	rjmp	.+86     	; 0x454 <DIO_set_pin_value+0x1e2>
	   break;
     case Group_D:
	   assign_bit(DIO_U8_PORTD,pin_NB,pin_value);
 3fe:	8c 81       	ldd	r24, Y+4	; 0x04
 400:	81 30       	cpi	r24, 0x01	; 1
 402:	a1 f4       	brne	.+40     	; 0x42c <DIO_set_pin_value+0x1ba>
 404:	a2 e3       	ldi	r26, 0x32	; 50
 406:	b0 e0       	ldi	r27, 0x00	; 0
 408:	e2 e3       	ldi	r30, 0x32	; 50
 40a:	f0 e0       	ldi	r31, 0x00	; 0
 40c:	80 81       	ld	r24, Z
 40e:	48 2f       	mov	r20, r24
 410:	8b 81       	ldd	r24, Y+3	; 0x03
 412:	28 2f       	mov	r18, r24
 414:	30 e0       	ldi	r19, 0x00	; 0
 416:	81 e0       	ldi	r24, 0x01	; 1
 418:	90 e0       	ldi	r25, 0x00	; 0
 41a:	02 2e       	mov	r0, r18
 41c:	02 c0       	rjmp	.+4      	; 0x422 <DIO_set_pin_value+0x1b0>
 41e:	88 0f       	add	r24, r24
 420:	99 1f       	adc	r25, r25
 422:	0a 94       	dec	r0
 424:	e2 f7       	brpl	.-8      	; 0x41e <DIO_set_pin_value+0x1ac>
 426:	84 2b       	or	r24, r20
 428:	8c 93       	st	X, r24
 42a:	14 c0       	rjmp	.+40     	; 0x454 <DIO_set_pin_value+0x1e2>
 42c:	a2 e3       	ldi	r26, 0x32	; 50
 42e:	b0 e0       	ldi	r27, 0x00	; 0
 430:	e2 e3       	ldi	r30, 0x32	; 50
 432:	f0 e0       	ldi	r31, 0x00	; 0
 434:	80 81       	ld	r24, Z
 436:	48 2f       	mov	r20, r24
 438:	8b 81       	ldd	r24, Y+3	; 0x03
 43a:	28 2f       	mov	r18, r24
 43c:	30 e0       	ldi	r19, 0x00	; 0
 43e:	81 e0       	ldi	r24, 0x01	; 1
 440:	90 e0       	ldi	r25, 0x00	; 0
 442:	02 2e       	mov	r0, r18
 444:	02 c0       	rjmp	.+4      	; 0x44a <DIO_set_pin_value+0x1d8>
 446:	88 0f       	add	r24, r24
 448:	99 1f       	adc	r25, r25
 44a:	0a 94       	dec	r0
 44c:	e2 f7       	brpl	.-8      	; 0x446 <DIO_set_pin_value+0x1d4>
 44e:	80 95       	com	r24
 450:	84 23       	and	r24, r20
 452:	8c 93       	st	X, r24
	   break;
     }
}


return error_state;
 454:	89 81       	ldd	r24, Y+1	; 0x01
}
 456:	26 96       	adiw	r28, 0x06	; 6
 458:	0f b6       	in	r0, 0x3f	; 63
 45a:	f8 94       	cli
 45c:	de bf       	out	0x3e, r29	; 62
 45e:	0f be       	out	0x3f, r0	; 63
 460:	cd bf       	out	0x3d, r28	; 61
 462:	cf 91       	pop	r28
 464:	df 91       	pop	r29
 466:	08 95       	ret

00000468 <DIO_set_port_value>:


U8 DIO_set_port_value(U8 port_NB,U8 port_value)
{
 468:	df 93       	push	r29
 46a:	cf 93       	push	r28
 46c:	00 d0       	rcall	.+0      	; 0x46e <DIO_set_port_value+0x6>
 46e:	00 d0       	rcall	.+0      	; 0x470 <DIO_set_port_value+0x8>
 470:	0f 92       	push	r0
 472:	cd b7       	in	r28, 0x3d	; 61
 474:	de b7       	in	r29, 0x3e	; 62
 476:	8a 83       	std	Y+2, r24	; 0x02
 478:	6b 83       	std	Y+3, r22	; 0x03
U8 error_state = 0;
 47a:	19 82       	std	Y+1, r1	; 0x01
if(port_NB>= DIO_Max_port_NB)
 47c:	8a 81       	ldd	r24, Y+2	; 0x02
 47e:	84 30       	cpi	r24, 0x04	; 4
 480:	18 f0       	brcs	.+6      	; 0x488 <DIO_set_port_value+0x20>
{
	error_state = 1;
 482:	81 e0       	ldi	r24, 0x01	; 1
 484:	89 83       	std	Y+1, r24	; 0x01
 486:	32 c0       	rjmp	.+100    	; 0x4ec <DIO_set_port_value+0x84>
else if(port_value>DIO_Max_port_value)
{
	error_state = 1;
}
else{
     switch(port_NB){
 488:	8a 81       	ldd	r24, Y+2	; 0x02
 48a:	28 2f       	mov	r18, r24
 48c:	30 e0       	ldi	r19, 0x00	; 0
 48e:	3d 83       	std	Y+5, r19	; 0x05
 490:	2c 83       	std	Y+4, r18	; 0x04
 492:	8c 81       	ldd	r24, Y+4	; 0x04
 494:	9d 81       	ldd	r25, Y+5	; 0x05
 496:	81 30       	cpi	r24, 0x01	; 1
 498:	91 05       	cpc	r25, r1
 49a:	d1 f0       	breq	.+52     	; 0x4d0 <DIO_set_port_value+0x68>
 49c:	2c 81       	ldd	r18, Y+4	; 0x04
 49e:	3d 81       	ldd	r19, Y+5	; 0x05
 4a0:	22 30       	cpi	r18, 0x02	; 2
 4a2:	31 05       	cpc	r19, r1
 4a4:	2c f4       	brge	.+10     	; 0x4b0 <DIO_set_port_value+0x48>
 4a6:	8c 81       	ldd	r24, Y+4	; 0x04
 4a8:	9d 81       	ldd	r25, Y+5	; 0x05
 4aa:	00 97       	sbiw	r24, 0x00	; 0
 4ac:	61 f0       	breq	.+24     	; 0x4c6 <DIO_set_port_value+0x5e>
 4ae:	1e c0       	rjmp	.+60     	; 0x4ec <DIO_set_port_value+0x84>
 4b0:	2c 81       	ldd	r18, Y+4	; 0x04
 4b2:	3d 81       	ldd	r19, Y+5	; 0x05
 4b4:	22 30       	cpi	r18, 0x02	; 2
 4b6:	31 05       	cpc	r19, r1
 4b8:	81 f0       	breq	.+32     	; 0x4da <DIO_set_port_value+0x72>
 4ba:	8c 81       	ldd	r24, Y+4	; 0x04
 4bc:	9d 81       	ldd	r25, Y+5	; 0x05
 4be:	83 30       	cpi	r24, 0x03	; 3
 4c0:	91 05       	cpc	r25, r1
 4c2:	81 f0       	breq	.+32     	; 0x4e4 <DIO_set_port_value+0x7c>
 4c4:	13 c0       	rjmp	.+38     	; 0x4ec <DIO_set_port_value+0x84>
      case Group_A:
    	  DIO_U8_PORTA = port_value;
 4c6:	eb e3       	ldi	r30, 0x3B	; 59
 4c8:	f0 e0       	ldi	r31, 0x00	; 0
 4ca:	8b 81       	ldd	r24, Y+3	; 0x03
 4cc:	80 83       	st	Z, r24
 4ce:	0e c0       	rjmp	.+28     	; 0x4ec <DIO_set_port_value+0x84>
	   break;
	   case Group_B:
		   DIO_U8_PORTB = port_value;
 4d0:	e8 e3       	ldi	r30, 0x38	; 56
 4d2:	f0 e0       	ldi	r31, 0x00	; 0
 4d4:	8b 81       	ldd	r24, Y+3	; 0x03
 4d6:	80 83       	st	Z, r24
 4d8:	09 c0       	rjmp	.+18     	; 0x4ec <DIO_set_port_value+0x84>
	   break;
     case Group_C:
    	 DIO_U8_PORTC = port_value;
 4da:	e5 e3       	ldi	r30, 0x35	; 53
 4dc:	f0 e0       	ldi	r31, 0x00	; 0
 4de:	8b 81       	ldd	r24, Y+3	; 0x03
 4e0:	80 83       	st	Z, r24
 4e2:	04 c0       	rjmp	.+8      	; 0x4ec <DIO_set_port_value+0x84>
	   break;
     case Group_D:
    	 DIO_U8_PORTD = port_value;
 4e4:	e2 e3       	ldi	r30, 0x32	; 50
 4e6:	f0 e0       	ldi	r31, 0x00	; 0
 4e8:	8b 81       	ldd	r24, Y+3	; 0x03
 4ea:	80 83       	st	Z, r24
	   break;
     }
}


return error_state;
 4ec:	89 81       	ldd	r24, Y+1	; 0x01
}
 4ee:	0f 90       	pop	r0
 4f0:	0f 90       	pop	r0
 4f2:	0f 90       	pop	r0
 4f4:	0f 90       	pop	r0
 4f6:	0f 90       	pop	r0
 4f8:	cf 91       	pop	r28
 4fa:	df 91       	pop	r29
 4fc:	08 95       	ret

000004fe <DIO_set_port_direction>:


U8 DIO_set_port_direction(U8 port_NB, U8 port_direction)
{
 4fe:	df 93       	push	r29
 500:	cf 93       	push	r28
 502:	00 d0       	rcall	.+0      	; 0x504 <DIO_set_port_direction+0x6>
 504:	00 d0       	rcall	.+0      	; 0x506 <DIO_set_port_direction+0x8>
 506:	0f 92       	push	r0
 508:	cd b7       	in	r28, 0x3d	; 61
 50a:	de b7       	in	r29, 0x3e	; 62
 50c:	8a 83       	std	Y+2, r24	; 0x02
 50e:	6b 83       	std	Y+3, r22	; 0x03
U8 error_state = 0;
 510:	19 82       	std	Y+1, r1	; 0x01
if(port_NB>= DIO_Max_port_NB)
 512:	8a 81       	ldd	r24, Y+2	; 0x02
 514:	84 30       	cpi	r24, 0x04	; 4
 516:	18 f0       	brcs	.+6      	; 0x51e <DIO_set_port_direction+0x20>
{
	error_state = 1;
 518:	81 e0       	ldi	r24, 0x01	; 1
 51a:	89 83       	std	Y+1, r24	; 0x01
 51c:	32 c0       	rjmp	.+100    	; 0x582 <DIO_set_port_direction+0x84>
else if( port_direction>DIO_Max_port_direction )
{
	error_state = 1;
}
else{
     switch(port_NB){
 51e:	8a 81       	ldd	r24, Y+2	; 0x02
 520:	28 2f       	mov	r18, r24
 522:	30 e0       	ldi	r19, 0x00	; 0
 524:	3d 83       	std	Y+5, r19	; 0x05
 526:	2c 83       	std	Y+4, r18	; 0x04
 528:	8c 81       	ldd	r24, Y+4	; 0x04
 52a:	9d 81       	ldd	r25, Y+5	; 0x05
 52c:	81 30       	cpi	r24, 0x01	; 1
 52e:	91 05       	cpc	r25, r1
 530:	d1 f0       	breq	.+52     	; 0x566 <DIO_set_port_direction+0x68>
 532:	2c 81       	ldd	r18, Y+4	; 0x04
 534:	3d 81       	ldd	r19, Y+5	; 0x05
 536:	22 30       	cpi	r18, 0x02	; 2
 538:	31 05       	cpc	r19, r1
 53a:	2c f4       	brge	.+10     	; 0x546 <DIO_set_port_direction+0x48>
 53c:	8c 81       	ldd	r24, Y+4	; 0x04
 53e:	9d 81       	ldd	r25, Y+5	; 0x05
 540:	00 97       	sbiw	r24, 0x00	; 0
 542:	61 f0       	breq	.+24     	; 0x55c <DIO_set_port_direction+0x5e>
 544:	1e c0       	rjmp	.+60     	; 0x582 <DIO_set_port_direction+0x84>
 546:	2c 81       	ldd	r18, Y+4	; 0x04
 548:	3d 81       	ldd	r19, Y+5	; 0x05
 54a:	22 30       	cpi	r18, 0x02	; 2
 54c:	31 05       	cpc	r19, r1
 54e:	81 f0       	breq	.+32     	; 0x570 <DIO_set_port_direction+0x72>
 550:	8c 81       	ldd	r24, Y+4	; 0x04
 552:	9d 81       	ldd	r25, Y+5	; 0x05
 554:	83 30       	cpi	r24, 0x03	; 3
 556:	91 05       	cpc	r25, r1
 558:	81 f0       	breq	.+32     	; 0x57a <DIO_set_port_direction+0x7c>
 55a:	13 c0       	rjmp	.+38     	; 0x582 <DIO_set_port_direction+0x84>
      case Group_A:
    	  DIO_U8_DDRA = port_direction;
 55c:	ea e3       	ldi	r30, 0x3A	; 58
 55e:	f0 e0       	ldi	r31, 0x00	; 0
 560:	8b 81       	ldd	r24, Y+3	; 0x03
 562:	80 83       	st	Z, r24
 564:	0e c0       	rjmp	.+28     	; 0x582 <DIO_set_port_direction+0x84>
	   break;
	   case Group_B:
		   DIO_U8_DDRB = port_direction;
 566:	e7 e3       	ldi	r30, 0x37	; 55
 568:	f0 e0       	ldi	r31, 0x00	; 0
 56a:	8b 81       	ldd	r24, Y+3	; 0x03
 56c:	80 83       	st	Z, r24
 56e:	09 c0       	rjmp	.+18     	; 0x582 <DIO_set_port_direction+0x84>
	   break;
     case Group_C:
    	 DIO_U8_DDRC = port_direction;
 570:	e4 e3       	ldi	r30, 0x34	; 52
 572:	f0 e0       	ldi	r31, 0x00	; 0
 574:	8b 81       	ldd	r24, Y+3	; 0x03
 576:	80 83       	st	Z, r24
 578:	04 c0       	rjmp	.+8      	; 0x582 <DIO_set_port_direction+0x84>
	   break;
     case Group_D:
    	 DIO_U8_DDRD = port_direction;
 57a:	e1 e3       	ldi	r30, 0x31	; 49
 57c:	f0 e0       	ldi	r31, 0x00	; 0
 57e:	8b 81       	ldd	r24, Y+3	; 0x03
 580:	80 83       	st	Z, r24
	   break;
     }
}


return error_state;
 582:	89 81       	ldd	r24, Y+1	; 0x01
}
 584:	0f 90       	pop	r0
 586:	0f 90       	pop	r0
 588:	0f 90       	pop	r0
 58a:	0f 90       	pop	r0
 58c:	0f 90       	pop	r0
 58e:	cf 91       	pop	r28
 590:	df 91       	pop	r29
 592:	08 95       	ret

00000594 <DIO_get_pin_value>:



U8 DIO_get_pin_value(U8 port_NB,U8  pin_NB,U8 * pin_value)
{
 594:	df 93       	push	r29
 596:	cf 93       	push	r28
 598:	cd b7       	in	r28, 0x3d	; 61
 59a:	de b7       	in	r29, 0x3e	; 62
 59c:	27 97       	sbiw	r28, 0x07	; 7
 59e:	0f b6       	in	r0, 0x3f	; 63
 5a0:	f8 94       	cli
 5a2:	de bf       	out	0x3e, r29	; 62
 5a4:	0f be       	out	0x3f, r0	; 63
 5a6:	cd bf       	out	0x3d, r28	; 61
 5a8:	8a 83       	std	Y+2, r24	; 0x02
 5aa:	6b 83       	std	Y+3, r22	; 0x03
 5ac:	5d 83       	std	Y+5, r21	; 0x05
 5ae:	4c 83       	std	Y+4, r20	; 0x04
U8 error_state = 0;
 5b0:	19 82       	std	Y+1, r1	; 0x01
if(port_NB>= DIO_Max_port_NB)
 5b2:	8a 81       	ldd	r24, Y+2	; 0x02
 5b4:	84 30       	cpi	r24, 0x04	; 4
 5b6:	18 f0       	brcs	.+6      	; 0x5be <DIO_get_pin_value+0x2a>
{
	error_state = 1;
 5b8:	81 e0       	ldi	r24, 0x01	; 1
 5ba:	89 83       	std	Y+1, r24	; 0x01
 5bc:	76 c0       	rjmp	.+236    	; 0x6aa <DIO_get_pin_value+0x116>
}
else if(pin_NB>=DIO_Max_pin_NB)
 5be:	8b 81       	ldd	r24, Y+3	; 0x03
 5c0:	88 30       	cpi	r24, 0x08	; 8
 5c2:	18 f0       	brcs	.+6      	; 0x5ca <DIO_get_pin_value+0x36>
{
	error_state = 1;
 5c4:	81 e0       	ldi	r24, 0x01	; 1
 5c6:	89 83       	std	Y+1, r24	; 0x01
 5c8:	70 c0       	rjmp	.+224    	; 0x6aa <DIO_get_pin_value+0x116>
}

else{
     switch(port_NB){
 5ca:	8a 81       	ldd	r24, Y+2	; 0x02
 5cc:	28 2f       	mov	r18, r24
 5ce:	30 e0       	ldi	r19, 0x00	; 0
 5d0:	3f 83       	std	Y+7, r19	; 0x07
 5d2:	2e 83       	std	Y+6, r18	; 0x06
 5d4:	4e 81       	ldd	r20, Y+6	; 0x06
 5d6:	5f 81       	ldd	r21, Y+7	; 0x07
 5d8:	41 30       	cpi	r20, 0x01	; 1
 5da:	51 05       	cpc	r21, r1
 5dc:	59 f1       	breq	.+86     	; 0x634 <DIO_get_pin_value+0xa0>
 5de:	8e 81       	ldd	r24, Y+6	; 0x06
 5e0:	9f 81       	ldd	r25, Y+7	; 0x07
 5e2:	82 30       	cpi	r24, 0x02	; 2
 5e4:	91 05       	cpc	r25, r1
 5e6:	34 f4       	brge	.+12     	; 0x5f4 <DIO_get_pin_value+0x60>
 5e8:	2e 81       	ldd	r18, Y+6	; 0x06
 5ea:	3f 81       	ldd	r19, Y+7	; 0x07
 5ec:	21 15       	cp	r18, r1
 5ee:	31 05       	cpc	r19, r1
 5f0:	69 f0       	breq	.+26     	; 0x60c <DIO_get_pin_value+0x78>
 5f2:	5b c0       	rjmp	.+182    	; 0x6aa <DIO_get_pin_value+0x116>
 5f4:	4e 81       	ldd	r20, Y+6	; 0x06
 5f6:	5f 81       	ldd	r21, Y+7	; 0x07
 5f8:	42 30       	cpi	r20, 0x02	; 2
 5fa:	51 05       	cpc	r21, r1
 5fc:	79 f1       	breq	.+94     	; 0x65c <DIO_get_pin_value+0xc8>
 5fe:	8e 81       	ldd	r24, Y+6	; 0x06
 600:	9f 81       	ldd	r25, Y+7	; 0x07
 602:	83 30       	cpi	r24, 0x03	; 3
 604:	91 05       	cpc	r25, r1
 606:	09 f4       	brne	.+2      	; 0x60a <DIO_get_pin_value+0x76>
 608:	3d c0       	rjmp	.+122    	; 0x684 <DIO_get_pin_value+0xf0>
 60a:	4f c0       	rjmp	.+158    	; 0x6aa <DIO_get_pin_value+0x116>
      case Group_A:
    	  * pin_value = get_bit(DIO_U8_PINA,pin_NB);
 60c:	e9 e3       	ldi	r30, 0x39	; 57
 60e:	f0 e0       	ldi	r31, 0x00	; 0
 610:	80 81       	ld	r24, Z
 612:	28 2f       	mov	r18, r24
 614:	30 e0       	ldi	r19, 0x00	; 0
 616:	8b 81       	ldd	r24, Y+3	; 0x03
 618:	88 2f       	mov	r24, r24
 61a:	90 e0       	ldi	r25, 0x00	; 0
 61c:	a9 01       	movw	r20, r18
 61e:	02 c0       	rjmp	.+4      	; 0x624 <DIO_get_pin_value+0x90>
 620:	55 95       	asr	r21
 622:	47 95       	ror	r20
 624:	8a 95       	dec	r24
 626:	e2 f7       	brpl	.-8      	; 0x620 <DIO_get_pin_value+0x8c>
 628:	ca 01       	movw	r24, r20
 62a:	81 70       	andi	r24, 0x01	; 1
 62c:	ec 81       	ldd	r30, Y+4	; 0x04
 62e:	fd 81       	ldd	r31, Y+5	; 0x05
 630:	80 83       	st	Z, r24
 632:	3b c0       	rjmp	.+118    	; 0x6aa <DIO_get_pin_value+0x116>
	   break;
	   case Group_B:
		   * pin_value=get_bit(DIO_U8_PINB,pin_NB);
 634:	e6 e3       	ldi	r30, 0x36	; 54
 636:	f0 e0       	ldi	r31, 0x00	; 0
 638:	80 81       	ld	r24, Z
 63a:	28 2f       	mov	r18, r24
 63c:	30 e0       	ldi	r19, 0x00	; 0
 63e:	8b 81       	ldd	r24, Y+3	; 0x03
 640:	88 2f       	mov	r24, r24
 642:	90 e0       	ldi	r25, 0x00	; 0
 644:	a9 01       	movw	r20, r18
 646:	02 c0       	rjmp	.+4      	; 0x64c <DIO_get_pin_value+0xb8>
 648:	55 95       	asr	r21
 64a:	47 95       	ror	r20
 64c:	8a 95       	dec	r24
 64e:	e2 f7       	brpl	.-8      	; 0x648 <DIO_get_pin_value+0xb4>
 650:	ca 01       	movw	r24, r20
 652:	81 70       	andi	r24, 0x01	; 1
 654:	ec 81       	ldd	r30, Y+4	; 0x04
 656:	fd 81       	ldd	r31, Y+5	; 0x05
 658:	80 83       	st	Z, r24
 65a:	27 c0       	rjmp	.+78     	; 0x6aa <DIO_get_pin_value+0x116>
	   break;
     case Group_C:
    	 * pin_value=get_bit(DIO_U8_PINC,pin_NB);
 65c:	e3 e3       	ldi	r30, 0x33	; 51
 65e:	f0 e0       	ldi	r31, 0x00	; 0
 660:	80 81       	ld	r24, Z
 662:	28 2f       	mov	r18, r24
 664:	30 e0       	ldi	r19, 0x00	; 0
 666:	8b 81       	ldd	r24, Y+3	; 0x03
 668:	88 2f       	mov	r24, r24
 66a:	90 e0       	ldi	r25, 0x00	; 0
 66c:	a9 01       	movw	r20, r18
 66e:	02 c0       	rjmp	.+4      	; 0x674 <DIO_get_pin_value+0xe0>
 670:	55 95       	asr	r21
 672:	47 95       	ror	r20
 674:	8a 95       	dec	r24
 676:	e2 f7       	brpl	.-8      	; 0x670 <DIO_get_pin_value+0xdc>
 678:	ca 01       	movw	r24, r20
 67a:	81 70       	andi	r24, 0x01	; 1
 67c:	ec 81       	ldd	r30, Y+4	; 0x04
 67e:	fd 81       	ldd	r31, Y+5	; 0x05
 680:	80 83       	st	Z, r24
 682:	13 c0       	rjmp	.+38     	; 0x6aa <DIO_get_pin_value+0x116>
	   break;
     case Group_D:
    	 * pin_value=get_bit(DIO_U8_PIND,pin_NB);
 684:	e0 e3       	ldi	r30, 0x30	; 48
 686:	f0 e0       	ldi	r31, 0x00	; 0
 688:	80 81       	ld	r24, Z
 68a:	28 2f       	mov	r18, r24
 68c:	30 e0       	ldi	r19, 0x00	; 0
 68e:	8b 81       	ldd	r24, Y+3	; 0x03
 690:	88 2f       	mov	r24, r24
 692:	90 e0       	ldi	r25, 0x00	; 0
 694:	a9 01       	movw	r20, r18
 696:	02 c0       	rjmp	.+4      	; 0x69c <DIO_get_pin_value+0x108>
 698:	55 95       	asr	r21
 69a:	47 95       	ror	r20
 69c:	8a 95       	dec	r24
 69e:	e2 f7       	brpl	.-8      	; 0x698 <DIO_get_pin_value+0x104>
 6a0:	ca 01       	movw	r24, r20
 6a2:	81 70       	andi	r24, 0x01	; 1
 6a4:	ec 81       	ldd	r30, Y+4	; 0x04
 6a6:	fd 81       	ldd	r31, Y+5	; 0x05
 6a8:	80 83       	st	Z, r24
	   break;
     }

}
return error_state;
 6aa:	89 81       	ldd	r24, Y+1	; 0x01
}
 6ac:	27 96       	adiw	r28, 0x07	; 7
 6ae:	0f b6       	in	r0, 0x3f	; 63
 6b0:	f8 94       	cli
 6b2:	de bf       	out	0x3e, r29	; 62
 6b4:	0f be       	out	0x3f, r0	; 63
 6b6:	cd bf       	out	0x3d, r28	; 61
 6b8:	cf 91       	pop	r28
 6ba:	df 91       	pop	r29
 6bc:	08 95       	ret

000006be <__vector_11>:

//3 led

void __vector_11(void) __attribute__((signal));
void __vector_11(void)
{
 6be:	1f 92       	push	r1
 6c0:	0f 92       	push	r0
 6c2:	0f b6       	in	r0, 0x3f	; 63
 6c4:	0f 92       	push	r0
 6c6:	11 24       	eor	r1, r1
 6c8:	2f 93       	push	r18
 6ca:	8f 93       	push	r24
 6cc:	9f 93       	push	r25
 6ce:	ef 93       	push	r30
 6d0:	ff 93       	push	r31
 6d2:	df 93       	push	r29
 6d4:	cf 93       	push	r28
 6d6:	cd b7       	in	r28, 0x3d	; 61
 6d8:	de b7       	in	r29, 0x3e	; 62
	static U16 count=0;
	static U8 var=0;
	count++;
 6da:	80 91 63 00 	lds	r24, 0x0063
 6de:	90 91 64 00 	lds	r25, 0x0064
 6e2:	01 96       	adiw	r24, 0x01	; 1
 6e4:	90 93 64 00 	sts	0x0064, r25
 6e8:	80 93 63 00 	sts	0x0063, r24
	if(count == 3907)
 6ec:	80 91 63 00 	lds	r24, 0x0063
 6f0:	90 91 64 00 	lds	r25, 0x0064
 6f4:	2f e0       	ldi	r18, 0x0F	; 15
 6f6:	83 34       	cpi	r24, 0x43	; 67
 6f8:	92 07       	cpc	r25, r18
 6fa:	81 f4       	brne	.+32     	; 0x71c <__vector_11+0x5e>
	{
		count = 0;
 6fc:	10 92 64 00 	sts	0x0064, r1
 700:	10 92 63 00 	sts	0x0063, r1
		TCNT0 = 192;
 704:	e2 e5       	ldi	r30, 0x52	; 82
 706:	f0 e0       	ldi	r31, 0x00	; 0
 708:	80 ec       	ldi	r24, 0xC0	; 192
 70a:	80 83       	st	Z, r24

		LedCounter++;
 70c:	80 91 60 00 	lds	r24, 0x0060
 710:	8f 5f       	subi	r24, 0xFF	; 255
 712:	80 93 60 00 	sts	0x0060, r24
		flag=1;
 716:	81 e0       	ldi	r24, 0x01	; 1
 718:	80 93 61 00 	sts	0x0061, r24

	}
}
 71c:	cf 91       	pop	r28
 71e:	df 91       	pop	r29
 720:	ff 91       	pop	r31
 722:	ef 91       	pop	r30
 724:	9f 91       	pop	r25
 726:	8f 91       	pop	r24
 728:	2f 91       	pop	r18
 72a:	0f 90       	pop	r0
 72c:	0f be       	out	0x3f, r0	; 63
 72e:	0f 90       	pop	r0
 730:	1f 90       	pop	r1
 732:	18 95       	reti

00000734 <main>:
	}
}
*/

void main(void)
{
 734:	df 93       	push	r29
 736:	cf 93       	push	r28
 738:	00 d0       	rcall	.+0      	; 0x73a <main+0x6>
 73a:	0f 92       	push	r0
 73c:	cd b7       	in	r28, 0x3d	; 61
 73e:	de b7       	in	r29, 0x3e	; 62
	//VARIABLE of toggle leds

	U8 state_1=0;
 740:	1b 82       	std	Y+3, r1	; 0x03
	U8 state_2=0;
 742:	1a 82       	std	Y+2, r1	; 0x02
	U8 state_3=0;
 744:	19 82       	std	Y+1, r1	; 0x01

    // start timing first time from 0.25
    TCNT0 = 192;
 746:	e2 e5       	ldi	r30, 0x52	; 82
 748:	f0 e0       	ldi	r31, 0x00	; 0
 74a:	80 ec       	ldi	r24, 0xC0	; 192
 74c:	80 83       	st	Z, r24

	//prescaler =8
	//normal mode
	TCCR0 = 0b00000010;
 74e:	e3 e5       	ldi	r30, 0x53	; 83
 750:	f0 e0       	ldi	r31, 0x00	; 0
 752:	82 e0       	ldi	r24, 0x02	; 2
 754:	80 83       	st	Z, r24
	DIO_set_pin_direction(Group_C, DIO_pin_C0,DIO_Output);
 756:	82 e0       	ldi	r24, 0x02	; 2
 758:	60 e0       	ldi	r22, 0x00	; 0
 75a:	41 e0       	ldi	r20, 0x01	; 1
 75c:	0e 94 3e 00 	call	0x7c	; 0x7c <DIO_set_pin_direction>
	DIO_set_pin_direction(Group_C, DIO_pin_C1,DIO_Output);
 760:	82 e0       	ldi	r24, 0x02	; 2
 762:	61 e0       	ldi	r22, 0x01	; 1
 764:	41 e0       	ldi	r20, 0x01	; 1
 766:	0e 94 3e 00 	call	0x7c	; 0x7c <DIO_set_pin_direction>
	DIO_set_pin_direction(Group_C, DIO_pin_C2,DIO_Output);
 76a:	82 e0       	ldi	r24, 0x02	; 2
 76c:	62 e0       	ldi	r22, 0x02	; 2
 76e:	41 e0       	ldi	r20, 0x01	; 1
 770:	0e 94 3e 00 	call	0x7c	; 0x7c <DIO_set_pin_direction>

	//Enable interrupt
	set_bit(TIMSK,0);
 774:	a9 e5       	ldi	r26, 0x59	; 89
 776:	b0 e0       	ldi	r27, 0x00	; 0
 778:	e9 e5       	ldi	r30, 0x59	; 89
 77a:	f0 e0       	ldi	r31, 0x00	; 0
 77c:	80 81       	ld	r24, Z
 77e:	81 60       	ori	r24, 0x01	; 1
 780:	8c 93       	st	X, r24

	//Enable global
	set_bit(SREG,7);
 782:	af e5       	ldi	r26, 0x5F	; 95
 784:	b0 e0       	ldi	r27, 0x00	; 0
 786:	ef e5       	ldi	r30, 0x5F	; 95
 788:	f0 e0       	ldi	r31, 0x00	; 0
 78a:	80 81       	ld	r24, Z
 78c:	80 68       	ori	r24, 0x80	; 128
 78e:	8c 93       	st	X, r24

  while(1)
   {
	  if(flag==1)
 790:	80 91 61 00 	lds	r24, 0x0061
 794:	81 30       	cpi	r24, 0x01	; 1
 796:	e1 f7       	brne	.-8      	; 0x790 <main+0x5c>
	  {
		  if(LedCounter%1==0)
		  {
			  DIO_set_pin_value(Group_C, DIO_pin_C0,toggle_bit(state_1,0));
 798:	9b 81       	ldd	r25, Y+3	; 0x03
 79a:	81 e0       	ldi	r24, 0x01	; 1
 79c:	89 27       	eor	r24, r25
 79e:	8b 83       	std	Y+3, r24	; 0x03
 7a0:	82 e0       	ldi	r24, 0x02	; 2
 7a2:	60 e0       	ldi	r22, 0x00	; 0
 7a4:	4b 81       	ldd	r20, Y+3	; 0x03
 7a6:	0e 94 39 01 	call	0x272	; 0x272 <DIO_set_pin_value>
		  }

		  if(LedCounter%2==0)
 7aa:	80 91 60 00 	lds	r24, 0x0060
 7ae:	88 2f       	mov	r24, r24
 7b0:	90 e0       	ldi	r25, 0x00	; 0
 7b2:	81 70       	andi	r24, 0x01	; 1
 7b4:	90 70       	andi	r25, 0x00	; 0
 7b6:	00 97       	sbiw	r24, 0x00	; 0
 7b8:	49 f4       	brne	.+18     	; 0x7cc <main+0x98>
		  {
			  DIO_set_pin_value(Group_C, DIO_pin_C1,toggle_bit(state_2,0));
 7ba:	8a 81       	ldd	r24, Y+2	; 0x02
 7bc:	91 e0       	ldi	r25, 0x01	; 1
 7be:	89 27       	eor	r24, r25
 7c0:	8a 83       	std	Y+2, r24	; 0x02
 7c2:	82 e0       	ldi	r24, 0x02	; 2
 7c4:	61 e0       	ldi	r22, 0x01	; 1
 7c6:	4a 81       	ldd	r20, Y+2	; 0x02
 7c8:	0e 94 39 01 	call	0x272	; 0x272 <DIO_set_pin_value>
		  }

		  if(LedCounter%3==0)
 7cc:	80 91 60 00 	lds	r24, 0x0060
 7d0:	93 e0       	ldi	r25, 0x03	; 3
 7d2:	69 2f       	mov	r22, r25
 7d4:	0e 94 fb 03 	call	0x7f6	; 0x7f6 <__udivmodqi4>
 7d8:	89 2f       	mov	r24, r25
 7da:	88 23       	and	r24, r24
 7dc:	49 f4       	brne	.+18     	; 0x7f0 <main+0xbc>
		  {
			  DIO_set_pin_value(Group_C, DIO_pin_C2,toggle_bit(state_3,0));
 7de:	89 81       	ldd	r24, Y+1	; 0x01
 7e0:	91 e0       	ldi	r25, 0x01	; 1
 7e2:	89 27       	eor	r24, r25
 7e4:	89 83       	std	Y+1, r24	; 0x01
 7e6:	82 e0       	ldi	r24, 0x02	; 2
 7e8:	62 e0       	ldi	r22, 0x02	; 2
 7ea:	49 81       	ldd	r20, Y+1	; 0x01
 7ec:	0e 94 39 01 	call	0x272	; 0x272 <DIO_set_pin_value>
		  }

      flag=0;
 7f0:	10 92 61 00 	sts	0x0061, r1
 7f4:	cd cf       	rjmp	.-102    	; 0x790 <main+0x5c>

000007f6 <__udivmodqi4>:
 7f6:	99 1b       	sub	r25, r25
 7f8:	79 e0       	ldi	r23, 0x09	; 9
 7fa:	04 c0       	rjmp	.+8      	; 0x804 <__udivmodqi4_ep>

000007fc <__udivmodqi4_loop>:
 7fc:	99 1f       	adc	r25, r25
 7fe:	96 17       	cp	r25, r22
 800:	08 f0       	brcs	.+2      	; 0x804 <__udivmodqi4_ep>
 802:	96 1b       	sub	r25, r22

00000804 <__udivmodqi4_ep>:
 804:	88 1f       	adc	r24, r24
 806:	7a 95       	dec	r23
 808:	c9 f7       	brne	.-14     	; 0x7fc <__udivmodqi4_loop>
 80a:	80 95       	com	r24
 80c:	08 95       	ret

0000080e <_exit>:
 80e:	f8 94       	cli

00000810 <__stop_program>:
 810:	ff cf       	rjmp	.-2      	; 0x810 <__stop_program>
